; Function Attrs: mustprogress uwtable
define void @_ZNK10open_spiel12breakthrough17BreakthroughState9SerializeB5cxx11Ev(ptr dead_on_unwind noalias writable sret(%"class.std::__cxx11::basic_string") align 8 %0, ptr noundef nonnull readonly align 8 captures(none) dereferenceable(112) %1) unnamed_addr #3 align 2 personality ptr @__gxx_personality_v0 {
  %3 = alloca %"class.std::allocator", align 1
  %4 = alloca %"class.absl::debian2::AlphaNum", align 8
  %5 = alloca %"class.std::__cxx11::basic_string", align 8
  call void @_ZNSaIcEC1Ev(ptr noundef nonnull align 1 dereferenceable(1) %3) #25
  %6 = invoke noundef ptr @_ZNSt7__cxx1112basic_stringIcSt11char_traitsIcESaIcEE13_M_local_dataEv(ptr noundef nonnull align 8 dereferenceable(32) %0)
          to label %.noexc unwind label %36

.noexc:                                           ; preds = %2
  invoke void @_ZNSt7__cxx1112basic_stringIcSt11char_traitsIcESaIcEE12_Alloc_hiderC1EPcRKS3_(ptr noundef nonnull align 8 dereferenceable(32) %0, ptr noundef %6, ptr noundef nonnull align 1 dereferenceable(1) %3)
          to label %.noexc15 unwind label %36

.noexc15:                                         ; preds = %.noexc
  invoke void @_ZNSt7__cxx1112basic_stringIcSt11char_traitsIcESaIcEE12_M_constructIPKcEEvT_S8_St20forward_iterator_tag(ptr noundef nonnull align 8 dereferenceable(32) %0, ptr noundef nonnull @.str.33, ptr noundef nonnull @.str.33)
          to label %_ZNSt7__cxx1112basic_stringIcSt11char_traitsIcESaIcEEC2IS3_EEPKcRKS3_.exit unwind label %7

7:                                                ; preds = %.noexc15
  %8 = landingpad { ptr, i32 }
          cleanup
  call void @_ZNSaIcED2Ev(ptr noundef nonnull align 8 dereferenceable(32) %0) #25
  br label %.body

_ZNSt7__cxx1112basic_stringIcSt11char_traitsIcESaIcEEC2IS3_EEPKcRKS3_.exit: ; preds = %.noexc15
  call void @_ZNSaIcED1Ev(ptr noundef nonnull align 1 dereferenceable(1) %3) #25
  %9 = getelementptr inbounds nuw i8, ptr %1, i64 80
  %10 = load i32, ptr %9, align 8
  %11 = icmp sgt i32 %10, 0
  br i1 %11, label %.preheader.lr.ph, label %._crit_edge18

.preheader.lr.ph:                                 ; preds = %_ZNSt7__cxx1112basic_stringIcSt11char_traitsIcESaIcEEC2IS3_EEPKcRKS3_.exit
  %12 = getelementptr inbounds nuw i8, ptr %1, i64 84
  %13 = getelementptr inbounds nuw i8, ptr %1, i64 88
  %14 = getelementptr inbounds nuw i8, ptr %4, i64 8
  %15 = load i32, ptr %12, align 4
  %16 = icmp sgt i32 %15, 0
  br i1 %16, label %.preheader, label %._crit_edge18

.preheader:                                       ; preds = %.preheader.lr.ph, %._crit_edge
  %17 = phi i32 [ %42, %._crit_edge ], [ %10, %.preheader.lr.ph ]
  %18 = phi i32 [ %43, %._crit_edge ], [ %15, %.preheader.lr.ph ]
  %.0917 = phi i32 [ %44, %._crit_edge ], [ 0, %.preheader.lr.ph ]
  %19 = icmp sgt i32 %18, 0
  br i1 %19, label %.lr.ph, label %._crit_edge

.lr.ph:                                           ; preds = %.preheader, %32
  %20 = phi i32 [ %34, %32 ], [ %18, %.preheader ]
  %.016 = phi i32 [ %33, %32 ], [ 0, %.preheader ]
  %21 = mul nsw i32 %20, %.0917
  %22 = add nsw i32 %21, %.016
  %23 = sext i32 %22 to i64
  %24 = load ptr, ptr %13, align 8
  %25 = getelementptr inbounds i32, ptr %24, i64 %23
  %26 = load i32, ptr %25, align 4
  invoke fastcc void @_ZN10open_spiel12breakthrough12_GLOBAL__N_112CellToStringB5cxx11ENS0_9CellStateE(ptr dead_on_unwind noalias writable align 8 %5, i32 noundef %26)
          to label %27 unwind label %38

27:                                               ; preds = %.lr.ph
  %28 = call noundef ptr @_ZNKSt7__cxx1112basic_stringIcSt11char_traitsIcESaIcEE4dataEv(ptr noundef nonnull align 8 dereferenceable(32) %5) #25
  %29 = call noundef i64 @_ZNKSt7__cxx1112basic_stringIcSt11char_traitsIcESaIcEE4sizeEv(ptr noundef nonnull align 8 dereferenceable(32) %5) #25
  store ptr %28, ptr %4, align 8
  %30 = icmp sgt i64 %29, -1
  br i1 %30, label %_ZN4absl7debian28AlphaNumC2ISaIcEEERKNSt7__cxx1112basic_stringIcSt11char_traitsIcET_EE.exit, label %31

31:                                               ; preds = %27
  call void @llvm.trap()
  unreachable

_ZN4absl7debian28AlphaNumC2ISaIcEEERKNSt7__cxx1112basic_stringIcSt11char_traitsIcET_EE.exit: ; preds = %27
  store i64 %29, ptr %14, align 8
  invoke void @_ZN4absl7debian29StrAppendEPNSt7__cxx1112basic_stringIcSt11char_traitsIcESaIcEEERKNS0_8AlphaNumE(ptr noundef nonnull %0, ptr noundef nonnull align 8 dereferenceable(48) %4)
          to label %32 unwind label %40

32:                                               ; preds = %_ZN4absl7debian28AlphaNumC2ISaIcEEERKNSt7__cxx1112basic_stringIcSt11char_traitsIcET_EE.exit
  call void @_ZNSt7__cxx1112basic_stringIcSt11char_traitsIcESaIcEED1Ev(ptr noundef nonnull align 8 dereferenceable(32) %5) #25
  %33 = add nuw nsw i32 %.016, 1
  %34 = load i32, ptr %12, align 4
  %35 = icmp slt i32 %33, %34
  br i1 %35, label %.lr.ph, label %._crit_edge.loopexit, !llvm.loop !22

36:                                               ; preds = %.noexc, %2
  %37 = landingpad { ptr, i32 }
          cleanup
  br label %.body

.body:                                            ; preds = %7, %36
  %eh.lpad-body = phi { ptr, i32 } [ %37, %36 ], [ %8, %7 ]
  call void @_ZNSaIcED1Ev(ptr noundef nonnull align 1 dereferenceable(1) %3) #25
  br label %47

38:                                               ; preds = %.lr.ph
  %39 = landingpad { ptr, i32 }
          cleanup
  br label %46

40:                                               ; preds = %_ZN4absl7debian28AlphaNumC2ISaIcEEERKNSt7__cxx1112basic_stringIcSt11char_traitsIcET_EE.exit
  %41 = landingpad { ptr, i32 }
          cleanup
  call void @_ZNSt7__cxx1112basic_stringIcSt11char_traitsIcESaIcEED1Ev(ptr noundef nonnull align 8 dereferenceable(32) %5) #25
  br label %46

._crit_edge.loopexit:                             ; preds = %32
  %.pre = load i32, ptr %9, align 8
  br label %._crit_edge

._crit_edge:                                      ; preds = %._crit_edge.loopexit, %.preheader
  %42 = phi i32 [ %.pre, %._crit_edge.loopexit ], [ %17, %.preheader ]
  %43 = phi i32 [ %34, %._crit_edge.loopexit ], [ %18, %.preheader ]
  %44 = add nuw nsw i32 %.0917, 1
  %45 = icmp slt i32 %44, %42
  br i1 %45, label %.preheader, label %._crit_edge18, !llvm.loop !23

._crit_edge18:                                    ; preds = %._crit_edge, %.preheader.lr.ph, %_ZNSt7__cxx1112basic_stringIcSt11char_traitsIcESaIcEEC2IS3_EEPKcRKS3_.exit
  ret void

46:                                               ; preds = %40, %38
  %.pn = phi { ptr, i32 } [ %41, %40 ], [ %39, %38 ]
  call void @_ZNSt7__cxx1112basic_stringIcSt11char_traitsIcESaIcEED1Ev(ptr noundef nonnull align 8 dereferenceable(32) %0) #25
  br label %47

47:                                               ; preds = %46, %.body
  %.pn.pn = phi { ptr, i32 } [ %.pn, %46 ], [ %eh.lpad-body, %.body ]
  resume { ptr, i32 } %.pn.pn
}